; Function Attrs: mustprogress uwtable
define internal fastcc void @_ZN6google8protobuf8compiler4java12_GLOBAL__N_129ClassNameWithoutPackageKotlinB5cxx11EPKNS0_10DescriptorE(ptr noalias nonnull align 8 %agg.result, ptr noundef readonly captures(none) %descriptor) unnamed_addr #3 personality ptr @__gxx_personality_v0 {
entry:
  %ref.tmp = alloca %"class.std::__cxx11::basic_string", align 8
  %ref.tmp2 = alloca %"class.absl::lts_20230802::AlphaNum", align 8
  %ref.tmp5 = alloca %"class.absl::lts_20230802::AlphaNum", align 8
  %ref.tmp7 = alloca %"class.absl::lts_20230802::AlphaNum", align 8
  %all_names_.i = getelementptr inbounds nuw i8, ptr %descriptor, i64 8
  %0 = load ptr, ptr %all_names_.i, align 8
  tail call void @_ZNSt7__cxx1112basic_stringIcSt11char_traitsIcESaIcEEC1ERKS4_(ptr noundef nonnull align 8 dereferenceable(32) %agg.result, ptr noundef nonnull align 8 dereferenceable(32) %0)
  %temp.0.in7 = getelementptr inbounds nuw i8, ptr %descriptor, i64 24
  %temp.08 = load ptr, ptr %temp.0.in7, align 8
  %tobool.not9 = icmp eq ptr %temp.08, null
  br i1 %tobool.not9, label %nrvo.skipdtor, label %invoke.cont6.lr.ph

invoke.cont6.lr.ph:                               ; preds = %entry
  %1 = getelementptr inbounds nuw i8, ptr %ref.tmp2, i64 8
  %2 = getelementptr inbounds nuw i8, ptr %ref.tmp5, i64 8
  %3 = getelementptr inbounds nuw i8, ptr %ref.tmp7, i64 8
  br label %invoke.cont6

invoke.cont6:                                     ; preds = %invoke.cont6.lr.ph, %invoke.cont9
  %temp.010 = phi ptr [ %temp.08, %invoke.cont6.lr.ph ], [ %temp.0, %invoke.cont9 ]
  %all_names_.i4 = getelementptr inbounds nuw i8, ptr %temp.010, i64 8
  %4 = load ptr, ptr %all_names_.i4, align 8
  %call.i = call { i64, ptr } @_ZNKSt7__cxx1112basic_stringIcSt11char_traitsIcESaIcEEcvSt17basic_string_viewIcS2_EEv(ptr noundef nonnull align 8 dereferenceable(32) %4) #18
  %5 = extractvalue { i64, ptr } %call.i, 0
  store i64 %5, ptr %ref.tmp2, align 8
  %6 = extractvalue { i64, ptr } %call.i, 1
  store ptr %6, ptr %1, align 8
  store i64 3, ptr %ref.tmp5, align 8
  store ptr @.str.13, ptr %2, align 8
  %call.i5 = call { i64, ptr } @_ZNKSt7__cxx1112basic_stringIcSt11char_traitsIcESaIcEEcvSt17basic_string_viewIcS2_EEv(ptr noundef nonnull align 8 dereferenceable(32) %agg.result) #18
  %7 = extractvalue { i64, ptr } %call.i5, 0
  store i64 %7, ptr %ref.tmp7, align 8
  %8 = extractvalue { i64, ptr } %call.i5, 1
  store ptr %8, ptr %3, align 8
  invoke void @_ZN4absl12lts_202308026StrCatB5cxx11ERKNS0_8AlphaNumES3_S3_(ptr nonnull sret(%"class.std::__cxx11::basic_string") align 8 %ref.tmp, ptr noundef nonnull align 8 dereferenceable(48) %ref.tmp2, ptr noundef nonnull align 8 dereferenceable(48) %ref.tmp5, ptr noundef nonnull align 8 dereferenceable(48) %ref.tmp7)
          to label %invoke.cont9 unwind label %lpad

invoke.cont9:                                     ; preds = %invoke.cont6
  %call10 = call noundef nonnull align 8 dereferenceable(32) ptr @_ZNSt7__cxx1112basic_stringIcSt11char_traitsIcESaIcEEaSEOS4_(ptr noundef nonnull align 8 dereferenceable(32) %agg.result, ptr noundef nonnull align 8 dereferenceable(32) %ref.tmp) #18
  call void @_ZNSt7__cxx1112basic_stringIcSt11char_traitsIcESaIcEED1Ev(ptr noundef nonnull align 8 dereferenceable(32) %ref.tmp) #18
  %temp.0.in = getelementptr inbounds nuw i8, ptr %temp.010, i64 24
  %temp.0 = load ptr, ptr %temp.0.in, align 8
  %tobool.not = icmp eq ptr %temp.0, null
  br i1 %tobool.not, label %nrvo.skipdtor, label %invoke.cont6, !llvm.loop !22

lpad:                                             ; preds = %invoke.cont6
  %9 = landingpad { ptr, i32 }
          cleanup
  call void @_ZNSt7__cxx1112basic_stringIcSt11char_traitsIcESaIcEED1Ev(ptr noundef nonnull align 8 dereferenceable(32) %agg.result) #18
  resume { ptr, i32 } %9

nrvo.skipdtor:                                    ; preds = %invoke.cont9, %entry
  ret void
}